; Function Attrs: mustprogress nofree norecurse nosync nounwind willreturn memory(read, inaccessiblemem: none) uwtable
define dso_local i64 @ZSTD_sizeof_CStream(ptr noundef readonly %0) local_unnamed_addr #4 {
  %2 = icmp eq ptr %0, null
  br i1 %2, label %ZSTD_sizeof_CCtx.exit, label %3

3:                                                ; preds = %1
  %4 = getelementptr inbounds nuw i8, ptr %0, i64 656
  %5 = load ptr, ptr %4, align 8
  %6 = icmp eq ptr %5, %0
  %7 = select i1 %6, i64 0, i64 5240
  %8 = getelementptr i8, ptr %0, i64 664
  %.val7.i = load ptr, ptr %8, align 8
  %9 = ptrtoint ptr %.val7.i to i64
  %10 = ptrtoint ptr %5 to i64
  %11 = getelementptr inbounds nuw i8, ptr %0, i64 3632
  %.sroa.0.0.copyload.i = load ptr, ptr %11, align 1
  %.sroa.48.0..sroa_idx.i = getelementptr inbounds nuw i8, ptr %0, i64 3648
  %.sroa.48.0.copyload.i = load i64, ptr %.sroa.48.0..sroa_idx.i, align 1
  %.sroa.59.0..sroa_idx.i = getelementptr inbounds nuw i8, ptr %0, i64 3664
  %.sroa.59.0.copyload.i = load ptr, ptr %.sroa.59.0..sroa_idx.i, align 1
  %12 = icmp eq ptr %.sroa.59.0.copyload.i, null
  br i1 %12, label %ZSTD_sizeof_localDict.exit.i, label %13

13:                                               ; preds = %3
  %14 = getelementptr inbounds nuw i8, ptr %.sroa.59.0.copyload.i, i64 32
  %15 = load ptr, ptr %14, align 8
  %16 = icmp eq ptr %15, %.sroa.59.0.copyload.i
  %17 = select i1 %16, i64 0, i64 6080
  %18 = getelementptr i8, ptr %.sroa.59.0.copyload.i, i64 40
  %.val5.i.i.i = load ptr, ptr %18, align 8
  %19 = ptrtoint ptr %.val5.i.i.i to i64
  %20 = ptrtoint ptr %15 to i64
  %21 = sub i64 %19, %20
  %22 = add i64 %21, %17
  br label %ZSTD_sizeof_localDict.exit.i

ZSTD_sizeof_localDict.exit.i:                     ; preds = %13, %3
  %.0.i.i.i = phi i64 [ %22, %13 ], [ 0, %3 ]
  %.not.i.i = icmp eq ptr %.sroa.0.0.copyload.i, null
  %23 = select i1 %.not.i.i, i64 0, i64 %.sroa.48.0.copyload.i
  %24 = sub i64 %9, %10
  %25 = add i64 %24, %7
  %26 = add i64 %25, %23
  %27 = add i64 %26, %.0.i.i.i
  br label %ZSTD_sizeof_CCtx.exit

ZSTD_sizeof_CCtx.exit:                            ; preds = %1, %ZSTD_sizeof_localDict.exit.i
  %.0.i = phi i64 [ %27, %ZSTD_sizeof_localDict.exit.i ], [ 0, %1 ]
  ret i64 %.0.i
}